; Function Attrs: mustprogress uwtable
define internal noundef zeroext i1 @"_ZNSt17_Function_handlerIFviPN5faiss5IndexEEZNKS0_14ParameterSpace19set_index_parameterES2_RKNSt7__cxx1112basic_stringIcSt11char_traitsIcESaIcEEEdE3$_0E10_M_managerERSt9_Any_dataRKSF_St18_Manager_operation"(ptr nocapture noundef nonnull align 8 dereferenceable(16) %0, ptr nocapture noundef nonnull readonly align 8 dereferenceable(16) %1, i32 noundef %2) #0 align 2 personality ptr @__gxx_personality_v0 {
  switch i32 %2, label %6 [
    i32 0, label %4
    i32 1, label %5
  ]

4:                                                ; preds = %3
  store ptr @"_ZTIZNK5faiss14ParameterSpace19set_index_parameterEPNS_5IndexERKNSt7__cxx1112basic_stringIcSt11char_traitsIcESaIcEEEdE3$_0", ptr %0, align 8
  br label %"_ZNSt14_Function_base13_Base_managerIZNK5faiss14ParameterSpace19set_index_parameterEPNS1_5IndexERKNSt7__cxx1112basic_stringIcSt11char_traitsIcESaIcEEEdE3$_0E10_M_managerERSt9_Any_dataRKSF_St18_Manager_operation.exit"

5:                                                ; preds = %3
  %.val = load ptr, ptr %1, align 8
  store ptr %.val, ptr %0, align 8
  br label %"_ZNSt14_Function_base13_Base_managerIZNK5faiss14ParameterSpace19set_index_parameterEPNS1_5IndexERKNSt7__cxx1112basic_stringIcSt11char_traitsIcESaIcEEEdE3$_0E10_M_managerERSt9_Any_dataRKSF_St18_Manager_operation.exit"

6:                                                ; preds = %3
  %.val6 = load ptr, ptr %1, align 8
  switch i32 %2, label %"_ZNSt14_Function_base13_Base_managerIZNK5faiss14ParameterSpace19set_index_parameterEPNS1_5IndexERKNSt7__cxx1112basic_stringIcSt11char_traitsIcESaIcEEEdE3$_0E10_M_managerERSt9_Any_dataRKSF_St18_Manager_operation.exit" [
    i32 3, label %17
    i32 2, label %7
  ]

7:                                                ; preds = %6
  %8 = tail call noalias noundef nonnull dereferenceable(48) ptr @_Znwm(i64 noundef 48) #32
  %9 = load ptr, ptr %.val6, align 8
  store ptr %9, ptr %8, align 8
  %10 = getelementptr inbounds i8, ptr %8, i64 8
  %11 = getelementptr inbounds i8, ptr %.val6, i64 8
  invoke void @_ZNSt7__cxx1112basic_stringIcSt11char_traitsIcESaIcEEC1ERKS4_(ptr noundef nonnull align 8 dereferenceable(32) %10, ptr noundef nonnull align 8 dereferenceable(32) %11)
          to label %"_ZNSt14_Function_base13_Base_managerIZNK5faiss14ParameterSpace19set_index_parameterEPNS1_5IndexERKNSt7__cxx1112basic_stringIcSt11char_traitsIcESaIcEEEdE3$_0E15_M_init_functorIRKSD_EEvRSt9_Any_dataOT_.exit.i" unwind label %12

12:                                               ; preds = %7
  %13 = landingpad { ptr, i32 }
          cleanup
  tail call void @_ZdlPv(ptr noundef nonnull %8) #31
  resume { ptr, i32 } %13

"_ZNSt14_Function_base13_Base_managerIZNK5faiss14ParameterSpace19set_index_parameterEPNS1_5IndexERKNSt7__cxx1112basic_stringIcSt11char_traitsIcESaIcEEEdE3$_0E15_M_init_functorIRKSD_EEvRSt9_Any_dataOT_.exit.i": ; preds = %7
  %14 = getelementptr inbounds i8, ptr %8, i64 40
  %15 = getelementptr inbounds i8, ptr %.val6, i64 40
  %16 = load double, ptr %15, align 8
  store double %16, ptr %14, align 8
  store ptr %8, ptr %0, align 8
  br label %"_ZNSt14_Function_base13_Base_managerIZNK5faiss14ParameterSpace19set_index_parameterEPNS1_5IndexERKNSt7__cxx1112basic_stringIcSt11char_traitsIcESaIcEEEdE3$_0E10_M_managerERSt9_Any_dataRKSF_St18_Manager_operation.exit"

17:                                               ; preds = %6
  %.val7.i = load ptr, ptr %0, align 8
  %18 = icmp eq ptr %.val7.i, null
  br i1 %18, label %"_ZNSt14_Function_base13_Base_managerIZNK5faiss14ParameterSpace19set_index_parameterEPNS1_5IndexERKNSt7__cxx1112basic_stringIcSt11char_traitsIcESaIcEEEdE3$_0E10_M_managerERSt9_Any_dataRKSF_St18_Manager_operation.exit", label %19

19:                                               ; preds = %17
  %20 = getelementptr inbounds i8, ptr %.val7.i, i64 8
  tail call void @_ZNSt7__cxx1112basic_stringIcSt11char_traitsIcESaIcEED1Ev(ptr noundef nonnull align 8 dereferenceable(32) %20) #14
  tail call void @_ZdlPv(ptr noundef nonnull %.val7.i) #31
  br label %"_ZNSt14_Function_base13_Base_managerIZNK5faiss14ParameterSpace19set_index_parameterEPNS1_5IndexERKNSt7__cxx1112basic_stringIcSt11char_traitsIcESaIcEEEdE3$_0E10_M_managerERSt9_Any_dataRKSF_St18_Manager_operation.exit"

"_ZNSt14_Function_base13_Base_managerIZNK5faiss14ParameterSpace19set_index_parameterEPNS1_5IndexERKNSt7__cxx1112basic_stringIcSt11char_traitsIcESaIcEEEdE3$_0E10_M_managerERSt9_Any_dataRKSF_St18_Manager_operation.exit": ; preds = %19, %17, %"_ZNSt14_Function_base13_Base_managerIZNK5faiss14ParameterSpace19set_index_parameterEPNS1_5IndexERKNSt7__cxx1112basic_stringIcSt11char_traitsIcESaIcEEEdE3$_0E15_M_init_functorIRKSD_EEvRSt9_Any_dataOT_.exit.i", %6, %5, %4
  ret i1 false
}